; Function Attrs: nounwind sspstrong uwtable
define internal fastcc range(i64 -14, 1) i64 @copy_to_user_flock64(i64 noundef %target_flock_addr, ptr noundef nonnull readonly captures(none) %fl) unnamed_addr #2 {
entry:
  %call = tail call ptr @lock_user(i32 noundef 3, i64 noundef %target_flock_addr, i64 noundef 32, i1 noundef zeroext false) #27
  %tobool.not = icmp eq ptr %call, null
  br i1 %tobool.not, label %return, label %if.end

if.end:                                           ; preds = %entry
  %0 = load i16, ptr %fl, align 8
  store i16 %0, ptr %call, align 1
  %l_whence = getelementptr inbounds nuw i8, ptr %call, i64 2
  %l_whence6 = getelementptr inbounds nuw i8, ptr %fl, i64 2
  %1 = load i16, ptr %l_whence6, align 2
  store i16 %1, ptr %l_whence, align 1
  %l_start = getelementptr inbounds nuw i8, ptr %call, i64 8
  %l_start9 = getelementptr inbounds nuw i8, ptr %fl, i64 8
  %2 = load i64, ptr %l_start9, align 8
  store i64 %2, ptr %l_start, align 1
  %l_len = getelementptr inbounds nuw i8, ptr %call, i64 16
  %l_len12 = getelementptr inbounds nuw i8, ptr %fl, i64 16
  %3 = load i64, ptr %l_len12, align 8
  store i64 %3, ptr %l_len, align 1
  %l_pid = getelementptr inbounds nuw i8, ptr %call, i64 24
  %l_pid15 = getelementptr inbounds nuw i8, ptr %fl, i64 24
  %4 = load i32, ptr %l_pid15, align 8
  store i32 %4, ptr %l_pid, align 1
  br label %return

return:                                           ; preds = %entry, %if.end
  %retval.0 = phi i64 [ 0, %if.end ], [ -14, %entry ]
  ret i64 %retval.0
}